target datalayout = "e-m:e-p270:32:32-p271:32:32-p272:64:64-i64:64-i128:128-f80:128-n8:16:32:64-S128"
target triple = "x86_64-unknown-linux-gnu"

%"class.llvh::ArrayRef" = type { ptr, i64 }
%"union.hermes::hbc::BytecodeOptions" = type { %struct.anon }
%struct.anon = type { i8 }
%"class.llvh::ArrayRef.2" = type { ptr, i64 }
%"class.llvh::ArrayRef.3" = type { ptr, i64 }
%"class.llvh::ArrayRef.5" = type { ptr, i64 }
%"class.llvh::ArrayRef.6" = type { ptr, i64 }
%"class.llvh::ArrayRef.7" = type { ptr, i64 }
%"class.llvh::Optional" = type { %"struct.llvh::optional_detail::OptionalStorage" }
%"struct.llvh::optional_detail::OptionalStorage" = type { %"struct.llvh::AlignedCharArrayUnion", i8, [7 x i8] }
%"struct.llvh::AlignedCharArrayUnion" = type { %"struct.llvh::AlignedCharArray" }
%"struct.llvh::AlignedCharArray" = type { [40 x i8] }
%"class.hermes::OptValue" = type <{ %"struct.hermes::hbc::DebugSourceLocation", i8, [3 x i8] }>
%"struct.hermes::hbc::DebugSourceLocation" = type { i32, i32, i32, i32, i32, i32, i32, i32 }
%"class.std::__cxx11::basic_string" = type { %"struct.std::__cxx11::basic_string<char>::_Alloc_hider", i64, %union.anon }
%"struct.std::__cxx11::basic_string<char>::_Alloc_hider" = type { ptr }
%union.anon = type { i64, [8 x i8] }
%"struct.hermes::SourceMapTextLocation" = type { %"class.std::__cxx11::basic_string", i32, i32 }
%"struct.hermes::hbc::DebugOffsets" = type { i32, i32, i32 }
%"class.hermes::hbc::BCProviderBase" = type { ptr, %"union.hermes::hbc::BytecodeOptions", i32, i32, i32, %"class.llvh::ArrayRef.2", %"class.llvh::ArrayRef.3", %"class.llvh::ArrayRef", %"class.llvh::ArrayRef", %"class.llvh::ArrayRef", %"class.llvh::ArrayRef", %"class.llvh::ArrayRef.5", %"class.llvh::ArrayRef", %"class.llvh::ArrayRef.6", %"class.llvh::ArrayRef", i32, %"class.llvh::ArrayRef.7", %"class.llvh::ArrayRef.7", %"class.llvh::ArrayRef.7", ptr, %"class.std::__cxx11::basic_string" }

; Function Attrs: mustprogress nounwind uwtable
define linkonce_odr hidden void @_ZN6hermes21SourceMapTextLocationC2EOS0_(ptr noundef nonnull align 8 dereferenceable(40) %this, ptr noundef nonnull align 8 dereferenceable(40) %0) unnamed_addr #0 comdat align 2 {
entry:
  %this.addr = alloca ptr, align 8
  %.addr = alloca ptr, align 8
  store ptr %this, ptr %this.addr, align 8
  store ptr %0, ptr %.addr, align 8
  %this1 = load ptr, ptr %this.addr, align 8
  %fileName = getelementptr inbounds %"struct.hermes::SourceMapTextLocation", ptr %this1, i32 0, i32 0
  %1 = load ptr, ptr %.addr, align 8
  %fileName2 = getelementptr inbounds %"struct.hermes::SourceMapTextLocation", ptr %1, i32 0, i32 0
  call void @_ZNSt7__cxx1112basic_stringIcSt11char_traitsIcESaIcEEC1EOS4_(ptr noundef nonnull align 8 dereferenceable(32) %fileName, ptr noundef nonnull align 8 dereferenceable(32) %fileName2) #12
  %line = getelementptr inbounds %"struct.hermes::SourceMapTextLocation", ptr %this1, i32 0, i32 1
  %2 = load ptr, ptr %.addr, align 8
  %line3 = getelementptr inbounds %"struct.hermes::SourceMapTextLocation", ptr %2, i32 0, i32 1
  call void @llvm.memcpy.p0.p0.i64(ptr align 8 %line, ptr align 8 %line3, i64 8, i1 false)
  ret void
}

; Function Attrs: mustprogress nounwind uwtable
define linkonce_odr hidden void @_ZN4llvh15optional_detail15OptionalStorageIN6hermes21SourceMapTextLocationELb0EEC2Ev(ptr noundef nonnull align 8 dereferenceable(41) %this) unnamed_addr #0 comdat align 2 {
entry:
  %this.addr = alloca ptr, align 8
  store ptr %this, ptr %this.addr, align 8
  %this1 = load ptr, ptr %this.addr, align 8
  %hasVal = getelementptr inbounds %"struct.llvh::optional_detail::OptionalStorage", ptr %this1, i32 0, i32 1
  store i8 0, ptr %hasVal, align 8
  ret void
}

; Function Attrs: mustprogress nounwind uwtable
define linkonce_odr hidden void @_ZN4llvh15optional_detail15OptionalStorageIN6hermes21SourceMapTextLocationELb0EEC2EOS3_(ptr noundef nonnull align 8 dereferenceable(41) %this, ptr noundef nonnull align 8 dereferenceable(40) %y) unnamed_addr #0 comdat align 2 {
entry:
  %this.addr = alloca ptr, align 8
  %y.addr = alloca ptr, align 8
  store ptr %this, ptr %this.addr, align 8
  store ptr %y, ptr %y.addr, align 8
  %this1 = load ptr, ptr %this.addr, align 8
  %hasVal = getelementptr inbounds %"struct.llvh::optional_detail::OptionalStorage", ptr %this1, i32 0, i32 1
  store i8 1, ptr %hasVal, align 8
  %storage2 = getelementptr inbounds %"struct.llvh::optional_detail::OptionalStorage", ptr %this1, i32 0, i32 0
  %buffer = getelementptr inbounds %"struct.llvh::AlignedCharArray", ptr %storage2, i32 0, i32 0
  %arraydecay = getelementptr inbounds [40 x i8], ptr %buffer, i64 0, i64 0
  %0 = load ptr, ptr %y.addr, align 8
  call void @_ZN6hermes21SourceMapTextLocationC2EOS0_(ptr noundef nonnull align 8 dereferenceable(40) %arraydecay, ptr noundef nonnull align 8 dereferenceable(40) %0) #12
  ret void
}

; Function Attrs: mustprogress nounwind uwtable
define linkonce_odr hidden void @_ZN4llvh8OptionalIN6hermes21SourceMapTextLocationEEC2ENS_8NoneTypeE(ptr noundef nonnull align 8 dereferenceable(48) %this, i32 noundef %0) unnamed_addr #0 comdat align 2 {
entry:
  %this.addr = alloca ptr, align 8
  %.addr = alloca i32, align 4
  store ptr %this, ptr %this.addr, align 8
  store i32 %0, ptr %.addr, align 4
  %this1 = load ptr, ptr %this.addr, align 8
  %Storage = getelementptr inbounds %"class.llvh::Optional", ptr %this1, i32 0, i32 0
  call void @_ZN4llvh15optional_detail15OptionalStorageIN6hermes21SourceMapTextLocationELb0EEC2Ev(ptr noundef nonnull align 8 dereferenceable(41) %Storage) #12
  ret void
}

; Function Attrs: mustprogress nounwind uwtable
define linkonce_odr hidden void @_ZN6hermes21SourceMapTextLocationD2Ev(ptr noundef nonnull align 8 dereferenceable(40) %this) unnamed_addr #0 comdat align 2 {
entry:
  %this.addr = alloca ptr, align 8
  store ptr %this, ptr %this.addr, align 8
  %this1 = load ptr, ptr %this.addr, align 8
  %fileName = getelementptr inbounds %"struct.hermes::SourceMapTextLocation", ptr %this1, i32 0, i32 0
  call void @_ZNSt7__cxx1112basic_stringIcSt11char_traitsIcESaIcEED1Ev(ptr noundef nonnull align 8 dereferenceable(32) %fileName) #12
  ret void
}

; Function Attrs: mustprogress nounwind uwtable
define linkonce_odr hidden void @_ZN4llvh8OptionalIN6hermes21SourceMapTextLocationEEC2EOS2_(ptr noundef nonnull align 8 dereferenceable(48) %this, ptr noundef nonnull align 8 dereferenceable(40) %y) unnamed_addr #0 comdat align 2 {
entry:
  %this.addr = alloca ptr, align 8
  %y.addr = alloca ptr, align 8
  store ptr %this, ptr %this.addr, align 8
  store ptr %y, ptr %y.addr, align 8
  %this1 = load ptr, ptr %this.addr, align 8
  %Storage = getelementptr inbounds %"class.llvh::Optional", ptr %this1, i32 0, i32 0
  %0 = load ptr, ptr %y.addr, align 8
  call void @_ZN4llvh15optional_detail15OptionalStorageIN6hermes21SourceMapTextLocationELb0EEC2EOS3_(ptr noundef nonnull align 8 dereferenceable(41) %Storage, ptr noundef nonnull align 8 dereferenceable(40) %0)
  ret void
}

; Function Attrs: mustprogress nounwind uwtable
define linkonce_odr hidden noundef nonnull align 4 dereferenceable(32) ptr @_ZNK6hermes8OptValueINS_3hbc19DebugSourceLocationEE8getValueEv(ptr noundef nonnull align 4 dereferenceable(33) %this) #0 comdat align 2 {
entry:
  %this.addr = alloca ptr, align 8
  store ptr %this, ptr %this.addr, align 8
  %this1 = load ptr, ptr %this.addr, align 8
  %value_ = getelementptr inbounds %"class.hermes::OptValue", ptr %this1, i32 0, i32 0
  ret ptr %value_
}

; Function Attrs: mustprogress nounwind uwtable
define linkonce_odr hidden noundef zeroext i1 @_ZNK6hermes8OptValueINS_3hbc19DebugSourceLocationEE8hasValueEv(ptr noundef nonnull align 4 dereferenceable(33) %this) #0 comdat align 2 {
entry:
  %this.addr = alloca ptr, align 8
  store ptr %this, ptr %this.addr, align 8
  %this1 = load ptr, ptr %this.addr, align 8
  %hasValue_ = getelementptr inbounds %"class.hermes::OptValue", ptr %this1, i32 0, i32 1
  %0 = load i8, ptr %hasValue_, align 4
  %tobool = trunc i8 %0 to i1
  ret i1 %tobool
}

; Function Attrs: mustprogress nounwind uwtable
define linkonce_odr hidden noundef ptr @_ZNK6hermes3hbc14BCProviderBase12getDebugInfoEv(ptr noundef nonnull align 8 dereferenceable(280) %this) #0 comdat align 2 {
entry:
  %this.addr = alloca ptr, align 8
  store ptr %this, ptr %this.addr, align 8
  %this1 = load ptr, ptr %this.addr, align 8
  %debugInfo_ = getelementptr inbounds %"class.hermes::hbc::BCProviderBase", ptr %this1, i32 0, i32 19
  %0 = load ptr, ptr %debugInfo_, align 8
  %tobool = icmp ne ptr %0, null
  br i1 %tobool, label %if.end, label %if.then

if.then:                                          ; preds = %entry
  %vtable = load ptr, ptr %this1, align 8
  %vfn = getelementptr inbounds ptr, ptr %vtable, i64 0
  %1 = load ptr, ptr %vfn, align 8
  call void %1(ptr noundef nonnull align 8 dereferenceable(280) %this1)
  br label %if.end

if.end:                                           ; preds = %if.then, %entry
  %debugInfo_2 = getelementptr inbounds %"class.hermes::hbc::BCProviderBase", ptr %this1, i32 0, i32 19
  %2 = load ptr, ptr %debugInfo_2, align 8
  ret ptr %2
}

; Function Attrs: mustprogress nounwind uwtable
define hidden void @_ZNK6hermes3hbc14BCProviderBase21getLocationForAddressEjj(ptr noalias sret(%"class.llvh::Optional") align 8 %agg.result, ptr noundef nonnull align 8 dereferenceable(280) %this, i32 noundef %funcId, i32 noundef %offsetInFunction) #0 align 2 {
entry:
  %result.ptr = alloca ptr, align 8
  %this.addr = alloca ptr, align 8
  %funcId.addr = alloca i32, align 4
  %offsetInFunction.addr = alloca i32, align 4
  %funcDebugOffsets = alloca ptr, align 8
  %debugInfo = alloca ptr, align 8
  %locOpt = alloca %"class.hermes::OptValue", align 4
  %loc = alloca %"struct.hermes::hbc::DebugSourceLocation", align 4
  %fileName = alloca %"class.std::__cxx11::basic_string", align 8
  %ref.tmp = alloca %"struct.hermes::SourceMapTextLocation", align 8
  store ptr %agg.result, ptr %result.ptr, align 8
  store ptr %this, ptr %this.addr, align 8
  store i32 %funcId, ptr %funcId.addr, align 4
  store i32 %offsetInFunction, ptr %offsetInFunction.addr, align 4
  %this1 = load ptr, ptr %this.addr, align 8
  %0 = load i32, ptr %funcId.addr, align 4
  %vtable = load ptr, ptr %this1, align 8
  %vfn = getelementptr inbounds ptr, ptr %vtable, i64 7
  %1 = load ptr, ptr %vfn, align 8
  %call = call noundef ptr %1(ptr noundef nonnull align 8 dereferenceable(280) %this1, i32 noundef %0)
  store ptr %call, ptr %funcDebugOffsets, align 8
  %2 = load ptr, ptr %funcDebugOffsets, align 8
  %cmp = icmp ne ptr %2, null
  br i1 %cmp, label %land.lhs.true, label %if.end11

land.lhs.true:                                    ; preds = %entry
  %3 = load ptr, ptr %funcDebugOffsets, align 8
  %sourceLocations = getelementptr inbounds %"struct.hermes::hbc::DebugOffsets", ptr %3, i32 0, i32 0
  %4 = load i32, ptr %sourceLocations, align 4
  %cmp2 = icmp ne i32 %4, -1
  br i1 %cmp2, label %if.then, label %if.end11

if.then:                                          ; preds = %land.lhs.true
  %call3 = call noundef ptr @_ZNK6hermes3hbc14BCProviderBase12getDebugInfoEv(ptr noundef nonnull align 8 dereferenceable(280) %this1)
  store ptr %call3, ptr %debugInfo, align 8
  %5 = load ptr, ptr %debugInfo, align 8
  %6 = load ptr, ptr %funcDebugOffsets, align 8
  %sourceLocations4 = getelementptr inbounds %"struct.hermes::hbc::DebugOffsets", ptr %6, i32 0, i32 0
  %7 = load i32, ptr %sourceLocations4, align 4
  %8 = load i32, ptr %offsetInFunction.addr, align 4
  call void @_ZNK6hermes3hbc9DebugInfo21getLocationForAddressEjj(ptr sret(%"class.hermes::OptValue") align 4 %locOpt, ptr noundef nonnull align 8 dereferenceable(136) %5, i32 noundef %7, i32 noundef %8)
  %call5 = call noundef zeroext i1 @_ZNK6hermes8OptValueINS_3hbc19DebugSourceLocationEE8hasValueEv(ptr noundef nonnull align 4 dereferenceable(33) %locOpt)
  br i1 %call5, label %if.then6, label %if.end

if.then6:                                         ; preds = %if.then
  %call7 = call noundef nonnull align 4 dereferenceable(32) ptr @_ZNK6hermes8OptValueINS_3hbc19DebugSourceLocationEE8getValueEv(ptr noundef nonnull align 4 dereferenceable(33) %locOpt)
  call void @llvm.memcpy.p0.p0.i64(ptr align 4 %loc, ptr align 4 %call7, i64 32, i1 false)
  %9 = load ptr, ptr %debugInfo, align 8
  %filenameId = getelementptr inbounds %"struct.hermes::hbc::DebugSourceLocation", ptr %loc, i32 0, i32 1
  %10 = load i32, ptr %filenameId, align 4
  call void @_ZNK6hermes3hbc9DebugInfo15getFilenameByIDB5cxx11Ej(ptr sret(%"class.std::__cxx11::basic_string") align 8 %fileName, ptr noundef nonnull align 8 dereferenceable(136) %9, i32 noundef %10)
  %fileName8 = getelementptr inbounds %"struct.hermes::SourceMapTextLocation", ptr %ref.tmp, i32 0, i32 0
  call void @_ZNSt7__cxx1112basic_stringIcSt11char_traitsIcESaIcEEC1EOS4_(ptr noundef nonnull align 8 dereferenceable(32) %fileName8, ptr noundef nonnull align 8 dereferenceable(32) %fileName) #12
  %line = getelementptr inbounds %"struct.hermes::SourceMapTextLocation", ptr %ref.tmp, i32 0, i32 1
  %line9 = getelementptr inbounds %"struct.hermes::hbc::DebugSourceLocation", ptr %loc, i32 0, i32 3
  %11 = load i32, ptr %line9, align 4
  store i32 %11, ptr %line, align 8
  %column = getelementptr inbounds %"struct.hermes::SourceMapTextLocation", ptr %ref.tmp, i32 0, i32 2
  %column10 = getelementptr inbounds %"struct.hermes::hbc::DebugSourceLocation", ptr %loc, i32 0, i32 4
  %12 = load i32, ptr %column10, align 4
  store i32 %12, ptr %column, align 4
  call void @_ZN4llvh8OptionalIN6hermes21SourceMapTextLocationEEC2EOS2_(ptr noundef nonnull align 8 dereferenceable(48) %agg.result, ptr noundef nonnull align 8 dereferenceable(40) %ref.tmp)
  call void @_ZN6hermes21SourceMapTextLocationD2Ev(ptr noundef nonnull align 8 dereferenceable(40) %ref.tmp) #12
  call void @_ZNSt7__cxx1112basic_stringIcSt11char_traitsIcESaIcEED1Ev(ptr noundef nonnull align 8 dereferenceable(32) %fileName) #12
  br label %return

if.end:                                           ; preds = %if.then
  br label %if.end11

if.end11:                                         ; preds = %if.end, %land.lhs.true, %entry
  call void @_ZN4llvh8OptionalIN6hermes21SourceMapTextLocationEEC2ENS_8NoneTypeE(ptr noundef nonnull align 8 dereferenceable(48) %agg.result, i32 noundef 1)
  br label %return

return:                                           ; preds = %if.end11, %if.then6
  ret void
}