; Function Attrs: mustprogress nounwind uwtable
define hidden void @_ZNK6hermes3hbc14BCProviderBase21getLocationForAddressEjj(ptr noalias sret(%"class.llvh::Optional") align 8 %agg.result, ptr noundef nonnull align 8 dereferenceable(280) %this, i32 noundef %funcId, i32 noundef %offsetInFunction) local_unnamed_addr #0 align 2 {
entry:
  %locOpt = alloca %"class.hermes::OptValue", align 4
  %fileName = alloca %"class.std::__cxx11::basic_string", align 8
  %ref.tmp = alloca %"struct.hermes::SourceMapTextLocation", align 8
  %vtable = load ptr, ptr %this, align 8
  %vfn = getelementptr inbounds i8, ptr %vtable, i64 56
  %0 = load ptr, ptr %vfn, align 8
  %call = tail call noundef ptr %0(ptr noundef nonnull align 8 dereferenceable(280) %this, i32 noundef %funcId) #19
  %cmp.not = icmp eq ptr %call, null
  br i1 %cmp.not, label %if.end11, label %land.lhs.true

land.lhs.true:                                    ; preds = %entry
  %1 = load i32, ptr %call, align 4
  %cmp2.not = icmp eq i32 %1, -1
  br i1 %cmp2.not, label %if.end11, label %if.then

if.then:                                          ; preds = %land.lhs.true
  %debugInfo_.i = getelementptr inbounds i8, ptr %this, i64 240
  %2 = load ptr, ptr %debugInfo_.i, align 8
  %tobool.not.i = icmp eq ptr %2, null
  br i1 %tobool.not.i, label %if.then.i, label %_ZNK6hermes3hbc14BCProviderBase12getDebugInfoEv.exit

if.then.i:                                        ; preds = %if.then
  %vtable.i = load ptr, ptr %this, align 8
  %3 = load ptr, ptr %vtable.i, align 8
  tail call void %3(ptr noundef nonnull align 8 dereferenceable(280) %this) #19
  %.pre.i = load ptr, ptr %debugInfo_.i, align 8
  %.pre = load i32, ptr %call, align 4
  br label %_ZNK6hermes3hbc14BCProviderBase12getDebugInfoEv.exit

_ZNK6hermes3hbc14BCProviderBase12getDebugInfoEv.exit: ; preds = %if.then, %if.then.i
  %4 = phi i32 [ %.pre, %if.then.i ], [ %1, %if.then ]
  %5 = phi ptr [ %.pre.i, %if.then.i ], [ %2, %if.then ]
  call void @_ZNK6hermes3hbc9DebugInfo21getLocationForAddressEjj(ptr nonnull sret(%"class.hermes::OptValue") align 4 %locOpt, ptr noundef nonnull align 8 dereferenceable(136) %5, i32 noundef %4, i32 noundef %offsetInFunction) #19
  %hasValue_.i = getelementptr inbounds i8, ptr %locOpt, i64 32
  %6 = load i8, ptr %hasValue_.i, align 4
  %7 = and i8 %6, 1
  %tobool.i.not = icmp eq i8 %7, 0
  br i1 %tobool.i.not, label %if.end11, label %if.then6

if.then6:                                         ; preds = %_ZNK6hermes3hbc14BCProviderBase12getDebugInfoEv.exit
  %loc.sroa.1.0.call7.sroa_idx = getelementptr inbounds i8, ptr %locOpt, i64 4
  %loc.sroa.1.0.copyload = load i32, ptr %loc.sroa.1.0.call7.sroa_idx, align 4
  %loc.sroa.21.0.call7.sroa_idx = getelementptr inbounds i8, ptr %locOpt, i64 12
  %line = getelementptr inbounds i8, ptr %ref.tmp, i64 32
  %8 = load <2 x i32>, ptr %loc.sroa.21.0.call7.sroa_idx, align 4
  call void @_ZNK6hermes3hbc9DebugInfo15getFilenameByIDB5cxx11Ej(ptr nonnull sret(%"class.std::__cxx11::basic_string") align 8 %fileName, ptr noundef nonnull align 8 dereferenceable(136) %5, i32 noundef %loc.sroa.1.0.copyload)
  call void @_ZNSt7__cxx1112basic_stringIcSt11char_traitsIcESaIcEEC1EOS4_(ptr noundef nonnull align 8 dereferenceable(32) %ref.tmp, ptr noundef nonnull align 8 dereferenceable(32) %fileName) #19
  store <2 x i32> %8, ptr %line, align 8
  %hasVal.i.i = getelementptr inbounds i8, ptr %agg.result, i64 40
  store i8 1, ptr %hasVal.i.i, align 8
  call void @_ZNSt7__cxx1112basic_stringIcSt11char_traitsIcESaIcEEC1EOS4_(ptr noundef nonnull align 8 dereferenceable(32) %agg.result, ptr noundef nonnull align 8 dereferenceable(32) %ref.tmp) #19
  %line.i.i.i = getelementptr inbounds i8, ptr %agg.result, i64 32
  %9 = load i64, ptr %line, align 8
  store i64 %9, ptr %line.i.i.i, align 8
  call void @_ZNSt7__cxx1112basic_stringIcSt11char_traitsIcESaIcEED1Ev(ptr noundef nonnull align 8 dereferenceable(32) %ref.tmp) #19
  call void @_ZNSt7__cxx1112basic_stringIcSt11char_traitsIcESaIcEED1Ev(ptr noundef nonnull align 8 dereferenceable(32) %fileName) #19
  br label %return

if.end11:                                         ; preds = %_ZNK6hermes3hbc14BCProviderBase12getDebugInfoEv.exit, %land.lhs.true, %entry
  %hasVal.i.i5 = getelementptr inbounds i8, ptr %agg.result, i64 40
  store i8 0, ptr %hasVal.i.i5, align 8
  br label %return

return:                                           ; preds = %if.end11, %if.then6
  ret void
}